; Function Attrs: mustprogress uwtable
define noundef double @_ZNK6icu_778Calendar15getTimeInMillisER10UErrorCode(ptr noundef nonnull align 8 dereferenceable(192) %0, ptr noundef nonnull align 4 dereferenceable(4) %1) local_unnamed_addr #1 align 2 {
  %3 = load i32, ptr %1, align 4, !tbaa !13
  %4 = icmp slt i32 %3, 1
  br i1 %4, label %5, label %_ZN6icu_778Calendar10updateTimeER10UErrorCode.exit.thread6

5:                                                ; preds = %2
  %6 = getelementptr inbounds nuw i8, ptr %0, i64 152
  %7 = load i8, ptr %6, align 8
  %8 = trunc i8 %7 to i1
  br i1 %8, label %_ZN6icu_778Calendar10updateTimeER10UErrorCode.exit.thread, label %9

9:                                                ; preds = %5
  %10 = load ptr, ptr %0, align 8, !tbaa !15
  %11 = getelementptr inbounds nuw i8, ptr %10, i64 248
  %12 = load ptr, ptr %11, align 8
  tail call void %12(ptr noundef nonnull align 8 dereferenceable(192) %0, ptr noundef nonnull align 4 dereferenceable(4) %1)
  %13 = load i32, ptr %1, align 4, !tbaa !13
  %14 = icmp slt i32 %13, 1
  br i1 %14, label %_ZN6icu_778Calendar10updateTimeER10UErrorCode.exit, label %_ZN6icu_778Calendar10updateTimeER10UErrorCode.exit.thread6

_ZN6icu_778Calendar10updateTimeER10UErrorCode.exit: ; preds = %9
  %15 = load i8, ptr %6, align 8
  %16 = and i8 %15, 20
  %or.cond.not.i = icmp eq i8 %16, 4
  %.v.i = select i1 %or.cond.not.i, i8 -10, i8 -12
  %17 = and i8 %.v.i, %15
  %18 = or disjoint i8 %17, 1
  store i8 %18, ptr %6, align 8
  %.pre = load i32, ptr %1, align 4, !tbaa !13
  %19 = icmp slt i32 %.pre, 1
  br i1 %19, label %_ZN6icu_778Calendar10updateTimeER10UErrorCode.exit.thread, label %_ZN6icu_778Calendar10updateTimeER10UErrorCode.exit.thread6

_ZN6icu_778Calendar10updateTimeER10UErrorCode.exit.thread: ; preds = %5, %_ZN6icu_778Calendar10updateTimeER10UErrorCode.exit
  %20 = getelementptr inbounds nuw i8, ptr %0, i64 136
  %21 = load double, ptr %20, align 8, !tbaa !53
  br label %_ZN6icu_778Calendar10updateTimeER10UErrorCode.exit.thread6

_ZN6icu_778Calendar10updateTimeER10UErrorCode.exit.thread6: ; preds = %9, %_ZN6icu_778Calendar10updateTimeER10UErrorCode.exit, %2, %_ZN6icu_778Calendar10updateTimeER10UErrorCode.exit.thread
  %.0 = phi double [ %21, %_ZN6icu_778Calendar10updateTimeER10UErrorCode.exit.thread ], [ 0.000000e+00, %2 ], [ 0.000000e+00, %_ZN6icu_778Calendar10updateTimeER10UErrorCode.exit ], [ 0.000000e+00, %9 ]
  ret double %.0
}